target datalayout = "e-m:e-p270:32:32-p271:32:32-p272:64:64-i64:64-i128:128-f80:128-n8:16:32:64-S128"
target triple = "x86_64-pc-linux-gnu"

%struct.pm_location_t = type { ptr, ptr }
%struct.pm_string_t = type { ptr, i64, i32 }
%struct.pm_parser = type { i32, i32, i32, i32, i32, i32, i32, %struct.anon, ptr, ptr, %struct.pm_token_t, %struct.pm_token_t, ptr, ptr, %struct.pm_list_t, %struct.pm_list_t, %struct.pm_location_t, %struct.pm_list_t, %struct.pm_list_t, ptr, ptr, ptr, ptr, ptr, ptr, ptr, %struct.pm_string_t, %struct.pm_constant_pool_t, %struct.pm_newline_list_t, i16, %struct.pm_string_t, i32, ptr, ptr, i32, i8, i8, i8, i8, i8, i8, i8, i8, i8, i8, i8, i8, i8 }
%struct.anon = type { ptr, [4 x %struct.pm_lex_mode], i64 }
%struct.pm_lex_mode = type { i32, %union.anon, ptr }
%union.anon = type { %struct.anon.3 }
%struct.anon.3 = type { %struct.pm_heredoc_lex_mode_t, ptr, ptr, i8 }
%struct.pm_heredoc_lex_mode_t = type { ptr, i64, i32, i32 }
%struct.pm_token_t = type { i32, ptr, ptr }
%struct.pm_list_t = type { i64, ptr, ptr }
%struct.pm_constant_pool_t = type { ptr, ptr, i32, i32 }
%struct.pm_newline_list_t = type { ptr, i64, i64, ptr }
%struct.pm_constant_t = type { ptr, i64 }

@.str.302 = private unnamed_addr constant [6 x i8] c":%.*s\00", align 1

; Function Attrs: inlinehint nounwind sspstrong uwtable
define internal void @prettyprint_constant(ptr noundef %0, ptr noundef %1, i32 noundef %2) #4 {
  %4 = alloca ptr, align 8
  %5 = alloca ptr, align 8
  %6 = alloca i32, align 4
  %7 = alloca ptr, align 8
  store ptr %0, ptr %4, align 8, !tbaa !7
  store ptr %1, ptr %5, align 8, !tbaa !11
  store i32 %2, ptr %6, align 4, !tbaa !58
  call void @llvm.lifetime.start.p0(i64 8, ptr %7) #5
  %8 = load ptr, ptr %5, align 8, !tbaa !11
  %9 = getelementptr inbounds nuw %struct.pm_parser, ptr %8, i32 0, i32 27
  %10 = load i32, ptr %6, align 4, !tbaa !58
  %11 = call ptr @pm_constant_pool_id_to_constant(ptr noundef %9, i32 noundef %10)
  store ptr %11, ptr %7, align 8, !tbaa !7
  %12 = load ptr, ptr %4, align 8, !tbaa !7
  %13 = load ptr, ptr %7, align 8, !tbaa !7
  %14 = getelementptr inbounds nuw %struct.pm_constant_t, ptr %13, i32 0, i32 1
  %15 = load i64, ptr %14, align 8, !tbaa !840
  %16 = trunc i64 %15 to i32
  %17 = load ptr, ptr %7, align 8, !tbaa !7
  %18 = getelementptr inbounds nuw %struct.pm_constant_t, ptr %17, i32 0, i32 0
  %19 = load ptr, ptr %18, align 8, !tbaa !842
  call void (ptr, ptr, ...) @pm_buffer_append_format(ptr noundef %12, ptr noundef @.str.302, i32 noundef %16, ptr noundef %19)
  call void @llvm.lifetime.end.p0(i64 8, ptr %7) #5
  ret void
}