; Function Attrs: inlinehint nounwind sspstrong uwtable
define internal fastcc void @prettyprint_constant(ptr noundef %0, ptr noundef %1, i32 noundef %2) unnamed_addr #4 {
  %4 = getelementptr inbounds nuw i8, ptr %1, i64 576
  %5 = tail call ptr @pm_constant_pool_id_to_constant(ptr noundef nonnull %4, i32 noundef %2) #5
  %6 = getelementptr inbounds nuw i8, ptr %5, i64 8
  %7 = load i64, ptr %6, align 8, !tbaa !85
  %8 = trunc i64 %7 to i32
  %9 = load ptr, ptr %5, align 8, !tbaa !87
  tail call void (ptr, ptr, ...) @pm_buffer_append_format(ptr noundef %0, ptr noundef nonnull @.str.302, i32 noundef %8, ptr noundef %9) #5
  ret void
}